target datalayout = "e-m:e-p270:32:32-p271:32:32-p272:64:64-i64:64-i128:128-f80:128-n8:16:32:64-S128"
target triple = "x86_64-pc-linux-gnu"

%struct.pcre2_memctl = type { ptr, ptr, ptr }
%struct.pcre2_callout_block_8 = type { i32, i32, i32, i32, ptr, ptr, ptr, i64, i64, i64, i64, i64, i64, i64, ptr, i32 }
%struct.match_block_8 = type { %struct.pcre2_memctl, i32, i32, i32, i32, i32, i32, i32, ptr, ptr, ptr, i64, i64, i16, i16, i16, i16, ptr, ptr, ptr, ptr, ptr, ptr, ptr, ptr, ptr, ptr, ptr, ptr, ptr, i32, i32, i32, i32, i32, i32, i32, [4 x i8], ptr, ptr, ptr }
%struct.heapframe = type { ptr, [2 x ptr], i64, i64, i64, i32, i32, [4 x i32], i8, i8, [6 x i8], ptr, ptr, ptr, ptr, i32, i32, i64, i64, [131072 x i64] }

@_pcre2_OP_lengths_8 = external constant [0 x i8], align 1

; Function Attrs: nounwind uwtable
define internal i32 @do_callout(ptr noundef %0, ptr noundef %1, ptr noundef %2) #0 {
  %4 = alloca i32, align 4
  %5 = alloca ptr, align 8
  %6 = alloca ptr, align 8
  %7 = alloca ptr, align 8
  %8 = alloca i32, align 4
  %9 = alloca i64, align 8
  %10 = alloca i64, align 8
  %11 = alloca ptr, align 8
  %12 = alloca ptr, align 8
  %13 = alloca i32, align 4
  store ptr %0, ptr %5, align 8, !tbaa !120
  store ptr %1, ptr %6, align 8, !tbaa !20
  store ptr %2, ptr %7, align 8, !tbaa !147
  call void @llvm.lifetime.start.p0(i64 4, ptr %8) #6
  call void @llvm.lifetime.start.p0(i64 8, ptr %9) #6
  call void @llvm.lifetime.start.p0(i64 8, ptr %10) #6
  call void @llvm.lifetime.start.p0(i64 8, ptr %11) #6
  call void @llvm.lifetime.start.p0(i64 8, ptr %12) #6
  %14 = load ptr, ptr %5, align 8, !tbaa !120
  %15 = getelementptr inbounds nuw %struct.heapframe, ptr %14, i32 0, i32 0
  %16 = load ptr, ptr %15, align 8, !tbaa !131
  %17 = load i8, ptr %16, align 1, !tbaa !19
  %18 = zext i8 %17 to i32
  %19 = icmp eq i32 %18, 119
  br i1 %19, label %20, label %23

20:                                               ; preds = %3
  %21 = load i8, ptr getelementptr inbounds ([0 x i8], ptr @_pcre2_OP_lengths_8, i64 0, i64 119), align 1, !tbaa !19
  %22 = zext i8 %21 to i32
  br label %38

23:                                               ; preds = %3
  %24 = load ptr, ptr %5, align 8, !tbaa !120
  %25 = getelementptr inbounds nuw %struct.heapframe, ptr %24, i32 0, i32 0
  %26 = load ptr, ptr %25, align 8, !tbaa !131
  %27 = getelementptr inbounds i8, ptr %26, i64 5
  %28 = load i8, ptr %27, align 1, !tbaa !19
  %29 = zext i8 %28 to i32
  %30 = shl i32 %29, 8
  %31 = load ptr, ptr %5, align 8, !tbaa !120
  %32 = getelementptr inbounds nuw %struct.heapframe, ptr %31, i32 0, i32 0
  %33 = load ptr, ptr %32, align 8, !tbaa !131
  %34 = getelementptr inbounds i8, ptr %33, i64 6
  %35 = load i8, ptr %34, align 1, !tbaa !19
  %36 = zext i8 %35 to i32
  %37 = or i32 %30, %36
  br label %38

38:                                               ; preds = %23, %20
  %39 = phi i32 [ %22, %20 ], [ %37, %23 ]
  %40 = zext i32 %39 to i64
  %41 = load ptr, ptr %7, align 8, !tbaa !147
  store i64 %40, ptr %41, align 8, !tbaa !11
  %42 = load ptr, ptr %6, align 8, !tbaa !20
  %43 = getelementptr inbounds nuw %struct.match_block_8, ptr %42, i32 0, i32 40
  %44 = load ptr, ptr %43, align 8, !tbaa !56
  %45 = icmp eq ptr %44, null
  br i1 %45, label %46, label %47

46:                                               ; preds = %38
  store i32 0, ptr %4, align 4
  store i32 1, ptr %13, align 4
  br label %203

47:                                               ; preds = %38
  %48 = load ptr, ptr %5, align 8, !tbaa !120
  %49 = getelementptr inbounds nuw %struct.heapframe, ptr %48, i32 0, i32 19
  %50 = getelementptr inbounds [131072 x i64], ptr %49, i64 0, i64 0
  %51 = getelementptr inbounds i64, ptr %50, i64 -2
  store ptr %51, ptr %11, align 8, !tbaa !147
  %52 = load ptr, ptr %6, align 8, !tbaa !20
  %53 = getelementptr inbounds nuw %struct.match_block_8, ptr %52, i32 0, i32 38
  %54 = load ptr, ptr %53, align 8, !tbaa !48
  store ptr %54, ptr %12, align 8, !tbaa !149
  %55 = load ptr, ptr %5, align 8, !tbaa !120
  %56 = getelementptr inbounds nuw %struct.heapframe, ptr %55, i32 0, i32 18
  %57 = load i64, ptr %56, align 8, !tbaa !128
  %58 = trunc i64 %57 to i32
  %59 = udiv i32 %58, 2
  %60 = add i32 %59, 1
  %61 = load ptr, ptr %12, align 8, !tbaa !149
  %62 = getelementptr inbounds nuw %struct.pcre2_callout_block_8, ptr %61, i32 0, i32 2
  store i32 %60, ptr %62, align 8, !tbaa !150
  %63 = load ptr, ptr %5, align 8, !tbaa !120
  %64 = getelementptr inbounds nuw %struct.heapframe, ptr %63, i32 0, i32 16
  %65 = load i32, ptr %64, align 4, !tbaa !123
  %66 = load ptr, ptr %12, align 8, !tbaa !149
  %67 = getelementptr inbounds nuw %struct.pcre2_callout_block_8, ptr %66, i32 0, i32 3
  store i32 %65, ptr %67, align 4, !tbaa !151
  %68 = load ptr, ptr %11, align 8, !tbaa !147
  %69 = load ptr, ptr %12, align 8, !tbaa !149
  %70 = getelementptr inbounds nuw %struct.pcre2_callout_block_8, ptr %69, i32 0, i32 4
  store ptr %68, ptr %70, align 8, !tbaa !152
  %71 = load ptr, ptr %6, align 8, !tbaa !20
  %72 = getelementptr inbounds nuw %struct.match_block_8, ptr %71, i32 0, i32 27
  %73 = load ptr, ptr %72, align 8, !tbaa !67
  %74 = load ptr, ptr %12, align 8, !tbaa !149
  %75 = getelementptr inbounds nuw %struct.pcre2_callout_block_8, ptr %74, i32 0, i32 5
  store ptr %73, ptr %75, align 8, !tbaa !153
  %76 = load ptr, ptr %5, align 8, !tbaa !120
  %77 = getelementptr inbounds nuw %struct.heapframe, ptr %76, i32 0, i32 11
  %78 = load ptr, ptr %77, align 8, !tbaa !125
  %79 = load ptr, ptr %6, align 8, !tbaa !20
  %80 = getelementptr inbounds nuw %struct.match_block_8, ptr %79, i32 0, i32 19
  %81 = load ptr, ptr %80, align 8, !tbaa !59
  %82 = ptrtoint ptr %78 to i64
  %83 = ptrtoint ptr %81 to i64
  %84 = sub i64 %82, %83
  %85 = load ptr, ptr %12, align 8, !tbaa !149
  %86 = getelementptr inbounds nuw %struct.pcre2_callout_block_8, ptr %85, i32 0, i32 9
  store i64 %84, ptr %86, align 8, !tbaa !154
  %87 = load ptr, ptr %5, align 8, !tbaa !120
  %88 = getelementptr inbounds nuw %struct.heapframe, ptr %87, i32 0, i32 0
  %89 = load ptr, ptr %88, align 8, !tbaa !131
  %90 = getelementptr inbounds i8, ptr %89, i64 1
  %91 = load i8, ptr %90, align 1, !tbaa !19
  %92 = zext i8 %91 to i32
  %93 = shl i32 %92, 8
  %94 = load ptr, ptr %5, align 8, !tbaa !120
  %95 = getelementptr inbounds nuw %struct.heapframe, ptr %94, i32 0, i32 0
  %96 = load ptr, ptr %95, align 8, !tbaa !131
  %97 = getelementptr inbounds i8, ptr %96, i64 2
  %98 = load i8, ptr %97, align 1, !tbaa !19
  %99 = zext i8 %98 to i32
  %100 = or i32 %93, %99
  %101 = zext i32 %100 to i64
  %102 = load ptr, ptr %12, align 8, !tbaa !149
  %103 = getelementptr inbounds nuw %struct.pcre2_callout_block_8, ptr %102, i32 0, i32 10
  store i64 %101, ptr %103, align 8, !tbaa !155
  %104 = load ptr, ptr %5, align 8, !tbaa !120
  %105 = getelementptr inbounds nuw %struct.heapframe, ptr %104, i32 0, i32 0
  %106 = load ptr, ptr %105, align 8, !tbaa !131
  %107 = getelementptr inbounds i8, ptr %106, i64 3
  %108 = load i8, ptr %107, align 1, !tbaa !19
  %109 = zext i8 %108 to i32
  %110 = shl i32 %109, 8
  %111 = load ptr, ptr %5, align 8, !tbaa !120
  %112 = getelementptr inbounds nuw %struct.heapframe, ptr %111, i32 0, i32 0
  %113 = load ptr, ptr %112, align 8, !tbaa !131
  %114 = getelementptr inbounds i8, ptr %113, i64 4
  %115 = load i8, ptr %114, align 1, !tbaa !19
  %116 = zext i8 %115 to i32
  %117 = or i32 %110, %116
  %118 = zext i32 %117 to i64
  %119 = load ptr, ptr %12, align 8, !tbaa !149
  %120 = getelementptr inbounds nuw %struct.pcre2_callout_block_8, ptr %119, i32 0, i32 11
  store i64 %118, ptr %120, align 8, !tbaa !156
  %121 = load ptr, ptr %5, align 8, !tbaa !120
  %122 = getelementptr inbounds nuw %struct.heapframe, ptr %121, i32 0, i32 0
  %123 = load ptr, ptr %122, align 8, !tbaa !131
  %124 = load i8, ptr %123, align 1, !tbaa !19
  %125 = zext i8 %124 to i32
  %126 = icmp eq i32 %125, 119
  br i1 %126, label %127, label %142

127:                                              ; preds = %47
  %128 = load ptr, ptr %5, align 8, !tbaa !120
  %129 = getelementptr inbounds nuw %struct.heapframe, ptr %128, i32 0, i32 0
  %130 = load ptr, ptr %129, align 8, !tbaa !131
  %131 = getelementptr inbounds i8, ptr %130, i64 5
  %132 = load i8, ptr %131, align 1, !tbaa !19
  %133 = zext i8 %132 to i32
  %134 = load ptr, ptr %12, align 8, !tbaa !149
  %135 = getelementptr inbounds nuw %struct.pcre2_callout_block_8, ptr %134, i32 0, i32 1
  store i32 %133, ptr %135, align 4, !tbaa !157
  %136 = load ptr, ptr %12, align 8, !tbaa !149
  %137 = getelementptr inbounds nuw %struct.pcre2_callout_block_8, ptr %136, i32 0, i32 12
  store i64 0, ptr %137, align 8, !tbaa !158
  %138 = load ptr, ptr %12, align 8, !tbaa !149
  %139 = getelementptr inbounds nuw %struct.pcre2_callout_block_8, ptr %138, i32 0, i32 14
  store ptr null, ptr %139, align 8, !tbaa !159
  %140 = load ptr, ptr %12, align 8, !tbaa !149
  %141 = getelementptr inbounds nuw %struct.pcre2_callout_block_8, ptr %140, i32 0, i32 13
  store i64 0, ptr %141, align 8, !tbaa !160
  br label %175

142:                                              ; preds = %47
  %143 = load ptr, ptr %12, align 8, !tbaa !149
  %144 = getelementptr inbounds nuw %struct.pcre2_callout_block_8, ptr %143, i32 0, i32 1
  store i32 0, ptr %144, align 4, !tbaa !157
  %145 = load ptr, ptr %5, align 8, !tbaa !120
  %146 = getelementptr inbounds nuw %struct.heapframe, ptr %145, i32 0, i32 0
  %147 = load ptr, ptr %146, align 8, !tbaa !131
  %148 = getelementptr inbounds i8, ptr %147, i64 7
  %149 = load i8, ptr %148, align 1, !tbaa !19
  %150 = zext i8 %149 to i32
  %151 = shl i32 %150, 8
  %152 = load ptr, ptr %5, align 8, !tbaa !120
  %153 = getelementptr inbounds nuw %struct.heapframe, ptr %152, i32 0, i32 0
  %154 = load ptr, ptr %153, align 8, !tbaa !131
  %155 = getelementptr inbounds i8, ptr %154, i64 8
  %156 = load i8, ptr %155, align 1, !tbaa !19
  %157 = zext i8 %156 to i32
  %158 = or i32 %151, %157
  %159 = zext i32 %158 to i64
  %160 = load ptr, ptr %12, align 8, !tbaa !149
  %161 = getelementptr inbounds nuw %struct.pcre2_callout_block_8, ptr %160, i32 0, i32 12
  store i64 %159, ptr %161, align 8, !tbaa !158
  %162 = load ptr, ptr %5, align 8, !tbaa !120
  %163 = getelementptr inbounds nuw %struct.heapframe, ptr %162, i32 0, i32 0
  %164 = load ptr, ptr %163, align 8, !tbaa !131
  %165 = getelementptr inbounds i8, ptr %164, i64 9
  %166 = getelementptr inbounds i8, ptr %165, i64 1
  %167 = load ptr, ptr %12, align 8, !tbaa !149
  %168 = getelementptr inbounds nuw %struct.pcre2_callout_block_8, ptr %167, i32 0, i32 14
  store ptr %166, ptr %168, align 8, !tbaa !159
  %169 = load ptr, ptr %7, align 8, !tbaa !147
  %170 = load i64, ptr %169, align 8, !tbaa !11
  %171 = sub i64 %170, 9
  %172 = sub i64 %171, 2
  %173 = load ptr, ptr %12, align 8, !tbaa !149
  %174 = getelementptr inbounds nuw %struct.pcre2_callout_block_8, ptr %173, i32 0, i32 13
  store i64 %172, ptr %174, align 8, !tbaa !160
  br label %175

175:                                              ; preds = %142, %127
  %176 = load ptr, ptr %11, align 8, !tbaa !147
  %177 = getelementptr inbounds i64, ptr %176, i64 0
  %178 = load i64, ptr %177, align 8, !tbaa !11
  store i64 %178, ptr %9, align 8, !tbaa !11
  %179 = load ptr, ptr %11, align 8, !tbaa !147
  %180 = getelementptr inbounds i64, ptr %179, i64 1
  %181 = load i64, ptr %180, align 8, !tbaa !11
  store i64 %181, ptr %10, align 8, !tbaa !11
  %182 = load ptr, ptr %11, align 8, !tbaa !147
  %183 = getelementptr inbounds i64, ptr %182, i64 1
  store i64 -1, ptr %183, align 8, !tbaa !11
  %184 = load ptr, ptr %11, align 8, !tbaa !147
  %185 = getelementptr inbounds i64, ptr %184, i64 0
  store i64 -1, ptr %185, align 8, !tbaa !11
  %186 = load ptr, ptr %6, align 8, !tbaa !20
  %187 = getelementptr inbounds nuw %struct.match_block_8, ptr %186, i32 0, i32 40
  %188 = load ptr, ptr %187, align 8, !tbaa !56
  %189 = load ptr, ptr %12, align 8, !tbaa !149
  %190 = load ptr, ptr %6, align 8, !tbaa !20
  %191 = getelementptr inbounds nuw %struct.match_block_8, ptr %190, i32 0, i32 39
  %192 = load ptr, ptr %191, align 8, !tbaa !58
  %193 = call i32 %188(ptr noundef %189, ptr noundef %192)
  store i32 %193, ptr %8, align 4, !tbaa !13
  %194 = load i64, ptr %9, align 8, !tbaa !11
  %195 = load ptr, ptr %11, align 8, !tbaa !147
  %196 = getelementptr inbounds i64, ptr %195, i64 0
  store i64 %194, ptr %196, align 8, !tbaa !11
  %197 = load i64, ptr %10, align 8, !tbaa !11
  %198 = load ptr, ptr %11, align 8, !tbaa !147
  %199 = getelementptr inbounds i64, ptr %198, i64 1
  store i64 %197, ptr %199, align 8, !tbaa !11
  %200 = load ptr, ptr %12, align 8, !tbaa !149
  %201 = getelementptr inbounds nuw %struct.pcre2_callout_block_8, ptr %200, i32 0, i32 15
  store i32 0, ptr %201, align 8, !tbaa !54
  %202 = load i32, ptr %8, align 4, !tbaa !13
  store i32 %202, ptr %4, align 4
  store i32 1, ptr %13, align 4
  br label %203

203:                                              ; preds = %175, %46
  call void @llvm.lifetime.end.p0(i64 8, ptr %12) #6
  call void @llvm.lifetime.end.p0(i64 8, ptr %11) #6
  call void @llvm.lifetime.end.p0(i64 8, ptr %10) #6
  call void @llvm.lifetime.end.p0(i64 8, ptr %9) #6
  call void @llvm.lifetime.end.p0(i64 4, ptr %8) #6
  %204 = load i32, ptr %4, align 4
  ret i32 %204
}