; Function Attrs: nounwind uwtable
define internal fastcc i32 @do_callout(ptr noundef %0, ptr noundef nonnull readonly captures(none) %1, ptr noundef nonnull captures(none) initializes((0, 8)) %2) unnamed_addr #0 {
  %4 = load ptr, ptr %0, align 8, !tbaa !120
  %5 = load i8, ptr %4, align 1, !tbaa !30
  %6 = icmp eq i8 %5, 119
  br i1 %6, label %7, label %10

7:                                                ; preds = %3
  %8 = load i8, ptr getelementptr inbounds nuw (i8, ptr @_pcre2_OP_lengths_8, i64 119), align 1, !tbaa !30
  %9 = zext i8 %8 to i64
  br label %19

10:                                               ; preds = %3
  %11 = getelementptr inbounds nuw i8, ptr %4, i64 5
  %12 = load i8, ptr %11, align 1, !tbaa !30
  %13 = zext i8 %12 to i64
  %14 = shl nuw nsw i64 %13, 8
  %15 = getelementptr inbounds nuw i8, ptr %4, i64 6
  %16 = load i8, ptr %15, align 1, !tbaa !30
  %17 = zext i8 %16 to i64
  %18 = or disjoint i64 %14, %17
  br label %19

19:                                               ; preds = %10, %7
  %20 = phi i64 [ %9, %7 ], [ %18, %10 ]
  store i64 %20, ptr %2, align 8, !tbaa !108
  %21 = getelementptr inbounds nuw i8, ptr %1, i64 256
  %22 = load ptr, ptr %21, align 8, !tbaa !44
  %23 = icmp eq ptr %22, null
  br i1 %23, label %98, label %24

24:                                               ; preds = %19
  %25 = getelementptr inbounds nuw i8, ptr %0, i64 120
  %26 = getelementptr inbounds nuw i8, ptr %1, i64 240
  %27 = load ptr, ptr %26, align 8, !tbaa !36
  %28 = getelementptr inbounds nuw i8, ptr %0, i64 128
  %29 = load i64, ptr %28, align 8, !tbaa !116
  %30 = trunc i64 %29 to i32
  %31 = lshr i32 %30, 1
  %32 = add nuw i32 %31, 1
  %33 = getelementptr inbounds nuw i8, ptr %27, i64 8
  store i32 %32, ptr %33, align 8, !tbaa !136
  %34 = getelementptr inbounds nuw i8, ptr %0, i64 116
  %35 = load i32, ptr %34, align 4, !tbaa !111
  %36 = getelementptr inbounds nuw i8, ptr %27, i64 12
  store i32 %35, ptr %36, align 4, !tbaa !137
  %37 = getelementptr inbounds nuw i8, ptr %27, i64 16
  store ptr %25, ptr %37, align 8, !tbaa !138
  %38 = getelementptr inbounds nuw i8, ptr %1, i64 184
  %39 = load ptr, ptr %38, align 8, !tbaa !102
  %40 = getelementptr inbounds nuw i8, ptr %27, i64 24
  store ptr %39, ptr %40, align 8, !tbaa !139
  %41 = getelementptr inbounds nuw i8, ptr %0, i64 80
  %42 = load ptr, ptr %41, align 8, !tbaa !113
  %43 = getelementptr inbounds nuw i8, ptr %1, i64 120
  %44 = load ptr, ptr %43, align 8, !tbaa !47
  %45 = ptrtoint ptr %42 to i64
  %46 = ptrtoint ptr %44 to i64
  %47 = sub i64 %45, %46
  %48 = getelementptr inbounds nuw i8, ptr %27, i64 56
  store i64 %47, ptr %48, align 8, !tbaa !140
  %49 = getelementptr inbounds nuw i8, ptr %4, i64 1
  %50 = load i8, ptr %49, align 1, !tbaa !30
  %51 = zext i8 %50 to i64
  %52 = shl nuw nsw i64 %51, 8
  %53 = getelementptr inbounds nuw i8, ptr %4, i64 2
  %54 = load i8, ptr %53, align 1, !tbaa !30
  %55 = zext i8 %54 to i64
  %56 = or disjoint i64 %52, %55
  %57 = getelementptr inbounds nuw i8, ptr %27, i64 64
  store i64 %56, ptr %57, align 8, !tbaa !141
  %58 = getelementptr inbounds nuw i8, ptr %4, i64 3
  %59 = load i8, ptr %58, align 1, !tbaa !30
  %60 = zext i8 %59 to i64
  %61 = shl nuw nsw i64 %60, 8
  %62 = getelementptr inbounds nuw i8, ptr %4, i64 4
  %63 = load i8, ptr %62, align 1, !tbaa !30
  %64 = zext i8 %63 to i64
  %65 = or disjoint i64 %61, %64
  %66 = getelementptr inbounds nuw i8, ptr %27, i64 72
  store i64 %65, ptr %66, align 8, !tbaa !142
  %67 = load i8, ptr %4, align 1, !tbaa !30
  %68 = icmp eq i8 %67, 119
  br i1 %68, label %69, label %75

69:                                               ; preds = %24
  %70 = getelementptr inbounds nuw i8, ptr %4, i64 5
  %71 = load i8, ptr %70, align 1, !tbaa !30
  %72 = zext i8 %71 to i32
  %73 = getelementptr inbounds nuw i8, ptr %27, i64 4
  store i32 %72, ptr %73, align 4, !tbaa !143
  %74 = getelementptr inbounds nuw i8, ptr %27, i64 80
  store i64 0, ptr %74, align 8, !tbaa !144
  br label %89

75:                                               ; preds = %24
  %76 = getelementptr inbounds nuw i8, ptr %27, i64 4
  store i32 0, ptr %76, align 4, !tbaa !143
  %77 = getelementptr inbounds nuw i8, ptr %4, i64 7
  %78 = load i8, ptr %77, align 1, !tbaa !30
  %79 = zext i8 %78 to i64
  %80 = shl nuw nsw i64 %79, 8
  %81 = getelementptr inbounds nuw i8, ptr %4, i64 8
  %82 = load i8, ptr %81, align 1, !tbaa !30
  %83 = zext i8 %82 to i64
  %84 = or disjoint i64 %80, %83
  %85 = getelementptr inbounds nuw i8, ptr %27, i64 80
  store i64 %84, ptr %85, align 8, !tbaa !144
  %86 = getelementptr inbounds nuw i8, ptr %4, i64 10
  %87 = load i64, ptr %2, align 8, !tbaa !108
  %88 = add i64 %87, -11
  br label %89

89:                                               ; preds = %75, %69
  %.sink51 = phi ptr [ null, %69 ], [ %86, %75 ]
  %.sink = phi i64 [ 0, %69 ], [ %88, %75 ]
  %90 = getelementptr inbounds nuw i8, ptr %27, i64 96
  store ptr %.sink51, ptr %90, align 8, !tbaa !145
  %91 = getelementptr inbounds nuw i8, ptr %27, i64 88
  store i64 %.sink, ptr %91, align 8, !tbaa !146
  %92 = load i64, ptr %25, align 8, !tbaa !108
  %93 = load i64, ptr %28, align 8, !tbaa !108
  %94 = getelementptr inbounds nuw i8, ptr %1, i64 248
  tail call void @llvm.memset.p0.i64(ptr noundef nonnull align 8 dereferenceable(16) %25, i8 -1, i64 16, i1 false)
  %95 = load ptr, ptr %94, align 8, !tbaa !46
  %96 = tail call i32 %22(ptr noundef nonnull %27, ptr noundef %95) #9
  store i64 %92, ptr %25, align 8, !tbaa !108
  store i64 %93, ptr %28, align 8, !tbaa !108
  %97 = getelementptr inbounds nuw i8, ptr %27, i64 104
  store i32 0, ptr %97, align 8, !tbaa !42
  br label %98

98:                                               ; preds = %19, %89
  %.0 = phi i32 [ %96, %89 ], [ 0, %19 ]
  ret i32 %.0
}